; Function Attrs: nounwind uwtable
define hidden void @zif_finfo_close(ptr noundef readonly captures(none) %0, ptr noundef writeonly captures(none) %1) #0 {
  %3 = alloca ptr, align 8
  call void @llvm.lifetime.start.p0(i64 8, ptr nonnull %3) #9
  %4 = getelementptr inbounds nuw i8, ptr %0, i64 44
  %5 = load i32, ptr %4, align 4, !tbaa !30
  %6 = load ptr, ptr @finfo_class_entry, align 8, !tbaa !31
  %7 = call i32 (i32, ptr, ...) @zend_parse_parameters(i32 noundef %5, ptr noundef nonnull @.str.11, ptr noundef nonnull %3, ptr noundef %6) #9
  %8 = icmp eq i32 %7, -1
  br i1 %8, label %9, label %12

9:                                                ; preds = %2
  %10 = load ptr, ptr getelementptr inbounds nuw (i8, ptr @executor_globals, i64 960), align 8, !tbaa !47
  %11 = icmp ne ptr %10, null
  call void @llvm.assume(i1 %11)
  br label %14

12:                                               ; preds = %2
  %13 = getelementptr inbounds nuw i8, ptr %1, i64 8
  store i32 3, ptr %13, align 8, !tbaa !30
  br label %14

14:                                               ; preds = %12, %9
  call void @llvm.lifetime.end.p0(i64 8, ptr nonnull %3) #9
  ret void
}